; Function Attrs: nounwind uwtable
define void @ossl_prov_conf_ctx_free(ptr noundef %0) local_unnamed_addr #0 {
  %2 = getelementptr inbounds nuw i8, ptr %0, i64 8
  %3 = load ptr, ptr %2, align 8, !tbaa !9
  tail call void @OPENSSL_sk_pop_free(ptr noundef %3, ptr noundef nonnull @ossl_provider_free) #5
  %4 = load ptr, ptr %0, align 8, !tbaa !3
  tail call void @CRYPTO_THREAD_lock_free(ptr noundef %4) #5
  tail call void @CRYPTO_free(ptr noundef nonnull %0, ptr noundef nonnull @.str, i32 noundef 55) #5
  ret void
}